target datalayout = "e-m:e-p270:32:32-p271:32:32-p272:64:64-i64:64-i128:128-f80:128-n8:16:32:64-S128"
target triple = "x86_64-pc-linux-gnu"

%"class.ncnn::Mat" = type { ptr, ptr, i64, i32, ptr, i32, i32, i32, i32, i32, i64 }
%"struct.std::_Vector_base.1" = type { %"struct.std::_Vector_base<ncnn::Mat, std::allocator<ncnn::Mat>>::_Vector_impl" }
%"struct.std::_Vector_base<ncnn::Mat, std::allocator<ncnn::Mat>>::_Vector_impl" = type { %"struct.std::_Vector_base<ncnn::Mat, std::allocator<ncnn::Mat>>::_Vector_impl_data" }
%"struct.std::_Vector_base<ncnn::Mat, std::allocator<ncnn::Mat>>::_Vector_impl_data" = type { ptr, ptr, ptr }
%"class.std::vector.0" = type { %"struct.std::_Vector_base.1" }
%"class.__gnu_cxx::__normal_iterator" = type { ptr }

; Function Attrs: alwaysinline mustprogress nounwind uwtable
define linkonce_odr dso_local void @_ZN4ncnn3Mat6addrefEv(ptr noundef nonnull align 8 dereferenceable(72) %0) #10 comdat align 2 {
  %2 = alloca ptr, align 8
  %3 = alloca i32, align 4
  %4 = alloca i32, align 4
  store ptr %0, ptr %2, align 8, !tbaa !52
  %5 = load ptr, ptr %2, align 8
  %6 = getelementptr inbounds nuw %"class.ncnn::Mat", ptr %5, i32 0, i32 1
  %7 = load ptr, ptr %6, align 8, !tbaa !56
  %8 = icmp ne ptr %7, null
  br i1 %8, label %9, label %14

9:                                                ; preds = %1
  %10 = getelementptr inbounds nuw %"class.ncnn::Mat", ptr %5, i32 0, i32 1
  %11 = load ptr, ptr %10, align 8, !tbaa !56
  store i32 1, ptr %3, align 4, !tbaa !17
  %12 = load i32, ptr %3, align 4
  %13 = atomicrmw add ptr %11, i32 %12 acq_rel, align 4
  store i32 %13, ptr %4, align 4
  br label %14

14:                                               ; preds = %9, %1
  ret void
}

; Function Attrs: mustprogress nounwind uwtable
define linkonce_odr dso_local void @_ZNSt15__new_allocatorIN4ncnn3MatEEC2Ev(ptr noundef nonnull align 1 dereferenceable(1) %0) unnamed_addr #8 comdat align 2 {
  %2 = alloca ptr, align 8
  store ptr %0, ptr %2, align 8, !tbaa !81
  ret void
}

; Function Attrs: alwaysinline mustprogress uwtable
define linkonce_odr dso_local void @_ZN4ncnn3MatC2ERKS0_(ptr noundef nonnull align 8 dereferenceable(72) %0, ptr noundef nonnull align 8 dereferenceable(72) %1) unnamed_addr #9 comdat align 2 {
  %3 = alloca ptr, align 8
  %4 = alloca ptr, align 8
  store ptr %0, ptr %3, align 8, !tbaa !52
  store ptr %1, ptr %4, align 8, !tbaa !52
  %5 = load ptr, ptr %3, align 8
  %6 = getelementptr inbounds nuw %"class.ncnn::Mat", ptr %5, i32 0, i32 0
  %7 = load ptr, ptr %4, align 8, !tbaa !52
  %8 = getelementptr inbounds nuw %"class.ncnn::Mat", ptr %7, i32 0, i32 0
  %9 = load ptr, ptr %8, align 8, !tbaa !53
  store ptr %9, ptr %6, align 8, !tbaa !53
  %10 = getelementptr inbounds nuw %"class.ncnn::Mat", ptr %5, i32 0, i32 1
  %11 = load ptr, ptr %4, align 8, !tbaa !52
  %12 = getelementptr inbounds nuw %"class.ncnn::Mat", ptr %11, i32 0, i32 1
  %13 = load ptr, ptr %12, align 8, !tbaa !56
  store ptr %13, ptr %10, align 8, !tbaa !56
  %14 = getelementptr inbounds nuw %"class.ncnn::Mat", ptr %5, i32 0, i32 2
  %15 = load ptr, ptr %4, align 8, !tbaa !52
  %16 = getelementptr inbounds nuw %"class.ncnn::Mat", ptr %15, i32 0, i32 2
  %17 = load i64, ptr %16, align 8, !tbaa !57
  store i64 %17, ptr %14, align 8, !tbaa !57
  %18 = getelementptr inbounds nuw %"class.ncnn::Mat", ptr %5, i32 0, i32 3
  %19 = load ptr, ptr %4, align 8, !tbaa !52
  %20 = getelementptr inbounds nuw %"class.ncnn::Mat", ptr %19, i32 0, i32 3
  %21 = load i32, ptr %20, align 8, !tbaa !58
  store i32 %21, ptr %18, align 8, !tbaa !58
  %22 = getelementptr inbounds nuw %"class.ncnn::Mat", ptr %5, i32 0, i32 4
  %23 = load ptr, ptr %4, align 8, !tbaa !52
  %24 = getelementptr inbounds nuw %"class.ncnn::Mat", ptr %23, i32 0, i32 4
  %25 = load ptr, ptr %24, align 8, !tbaa !59
  store ptr %25, ptr %22, align 8, !tbaa !59
  %26 = getelementptr inbounds nuw %"class.ncnn::Mat", ptr %5, i32 0, i32 5
  %27 = load ptr, ptr %4, align 8, !tbaa !52
  %28 = getelementptr inbounds nuw %"class.ncnn::Mat", ptr %27, i32 0, i32 5
  %29 = load i32, ptr %28, align 8, !tbaa !60
  store i32 %29, ptr %26, align 8, !tbaa !60
  %30 = getelementptr inbounds nuw %"class.ncnn::Mat", ptr %5, i32 0, i32 6
  %31 = load ptr, ptr %4, align 8, !tbaa !52
  %32 = getelementptr inbounds nuw %"class.ncnn::Mat", ptr %31, i32 0, i32 6
  %33 = load i32, ptr %32, align 4, !tbaa !61
  store i32 %33, ptr %30, align 4, !tbaa !61
  %34 = getelementptr inbounds nuw %"class.ncnn::Mat", ptr %5, i32 0, i32 7
  %35 = load ptr, ptr %4, align 8, !tbaa !52
  %36 = getelementptr inbounds nuw %"class.ncnn::Mat", ptr %35, i32 0, i32 7
  %37 = load i32, ptr %36, align 8, !tbaa !62
  store i32 %37, ptr %34, align 8, !tbaa !62
  %38 = getelementptr inbounds nuw %"class.ncnn::Mat", ptr %5, i32 0, i32 8
  %39 = load ptr, ptr %4, align 8, !tbaa !52
  %40 = getelementptr inbounds nuw %"class.ncnn::Mat", ptr %39, i32 0, i32 8
  %41 = load i32, ptr %40, align 4, !tbaa !63
  store i32 %41, ptr %38, align 4, !tbaa !63
  %42 = getelementptr inbounds nuw %"class.ncnn::Mat", ptr %5, i32 0, i32 9
  %43 = load ptr, ptr %4, align 8, !tbaa !52
  %44 = getelementptr inbounds nuw %"class.ncnn::Mat", ptr %43, i32 0, i32 9
  %45 = load i32, ptr %44, align 8, !tbaa !64
  store i32 %45, ptr %42, align 8, !tbaa !64
  %46 = getelementptr inbounds nuw %"class.ncnn::Mat", ptr %5, i32 0, i32 10
  %47 = load ptr, ptr %4, align 8, !tbaa !52
  %48 = getelementptr inbounds nuw %"class.ncnn::Mat", ptr %47, i32 0, i32 10
  %49 = load i64, ptr %48, align 8, !tbaa !65
  store i64 %49, ptr %46, align 8, !tbaa !65
  call void @_ZN4ncnn3Mat6addrefEv(ptr noundef nonnull align 8 dereferenceable(72) %5)
  ret void
}

; Function Attrs: mustprogress nounwind uwtable
define linkonce_odr dso_local void @_ZNSt12_Vector_baseIN4ncnn3MatESaIS1_EE17_Vector_impl_dataC2Ev(ptr noundef nonnull align 8 dereferenceable(24) %0) unnamed_addr #8 comdat align 2 {
  %2 = alloca ptr, align 8
  store ptr %0, ptr %2, align 8, !tbaa !169
  %3 = load ptr, ptr %2, align 8
  %4 = getelementptr inbounds nuw %"struct.std::_Vector_base<ncnn::Mat, std::allocator<ncnn::Mat>>::_Vector_impl_data", ptr %3, i32 0, i32 0
  store ptr null, ptr %4, align 8, !tbaa !51
  %5 = getelementptr inbounds nuw %"struct.std::_Vector_base<ncnn::Mat, std::allocator<ncnn::Mat>>::_Vector_impl_data", ptr %3, i32 0, i32 1
  store ptr null, ptr %5, align 8, !tbaa !48
  %6 = getelementptr inbounds nuw %"struct.std::_Vector_base<ncnn::Mat, std::allocator<ncnn::Mat>>::_Vector_impl_data", ptr %3, i32 0, i32 2
  store ptr null, ptr %6, align 8, !tbaa !74
  ret void
}

; Function Attrs: mustprogress nounwind uwtable
define linkonce_odr dso_local void @_ZNSaIN4ncnn3MatEEC2Ev(ptr noundef nonnull align 1 dereferenceable(1) %0) unnamed_addr #8 comdat align 2 {
  %2 = alloca ptr, align 8
  store ptr %0, ptr %2, align 8, !tbaa !79
  %3 = load ptr, ptr %2, align 8
  call void @_ZNSt15__new_allocatorIN4ncnn3MatEEC2Ev(ptr noundef nonnull align 1 dereferenceable(1) %3) #3
  ret void
}

; Function Attrs: mustprogress nounwind uwtable
define linkonce_odr dso_local void @_ZN9__gnu_cxx17__normal_iteratorIPN4ncnn3MatESt6vectorIS2_SaIS2_EEEC2ERKS3_(ptr noundef nonnull align 8 dereferenceable(8) %0, ptr noundef nonnull align 8 dereferenceable(8) %1) unnamed_addr #8 comdat align 2 {
  %3 = alloca ptr, align 8
  %4 = alloca ptr, align 8
  store ptr %0, ptr %3, align 8, !tbaa !83
  store ptr %1, ptr %4, align 8, !tbaa !87
  %5 = load ptr, ptr %3, align 8
  %6 = getelementptr inbounds nuw %"class.__gnu_cxx::__normal_iterator", ptr %5, i32 0, i32 0
  %7 = load ptr, ptr %4, align 8, !tbaa !87
  %8 = load ptr, ptr %7, align 8, !tbaa !52
  store ptr %8, ptr %6, align 8, !tbaa !89
  ret void
}

; Function Attrs: mustprogress uwtable
define linkonce_odr dso_local void @_ZNSt15__new_allocatorIN4ncnn3MatEE9constructIS1_JRKS1_EEEvPT_DpOT0_(ptr noundef nonnull align 1 dereferenceable(1) %0, ptr noundef %1, ptr noundef nonnull align 8 dereferenceable(72) %2) #4 comdat align 2 {
  %4 = alloca ptr, align 8
  %5 = alloca ptr, align 8
  %6 = alloca ptr, align 8
  store ptr %0, ptr %4, align 8, !tbaa !81
  store ptr %1, ptr %5, align 8, !tbaa !52
  store ptr %2, ptr %6, align 8, !tbaa !52
  %7 = load ptr, ptr %5, align 8, !tbaa !52
  %8 = load ptr, ptr %6, align 8, !tbaa !52
  call void @_ZN4ncnn3MatC2ERKS0_(ptr noundef nonnull align 8 dereferenceable(72) %7, ptr noundef nonnull align 8 dereferenceable(72) %8)
  ret void
}

; Function Attrs: mustprogress nounwind uwtable
define linkonce_odr dso_local void @_ZNSt12_Vector_baseIN4ncnn3MatESaIS1_EE12_Vector_implC2Ev(ptr noundef nonnull align 8 dereferenceable(24) %0) unnamed_addr #8 comdat align 2 {
  %2 = alloca ptr, align 8
  store ptr %0, ptr %2, align 8, !tbaa !77
  %3 = load ptr, ptr %2, align 8
  call void @_ZNSaIN4ncnn3MatEEC2Ev(ptr noundef nonnull align 1 dereferenceable(1) %3) #3
  call void @_ZNSt12_Vector_baseIN4ncnn3MatESaIS1_EE17_Vector_impl_dataC2Ev(ptr noundef nonnull align 8 dereferenceable(24) %3) #3
  ret void
}

; Function Attrs: mustprogress nounwind uwtable
define linkonce_odr dso_local ptr @_ZNSt6vectorIN4ncnn3MatESaIS1_EE3endEv(ptr noundef nonnull align 8 dereferenceable(24) %0) #8 comdat align 2 {
  %2 = alloca %"class.__gnu_cxx::__normal_iterator", align 8
  %3 = alloca ptr, align 8
  store ptr %0, ptr %3, align 8, !tbaa !10
  %4 = load ptr, ptr %3, align 8
  %5 = getelementptr inbounds nuw %"struct.std::_Vector_base.1", ptr %4, i32 0, i32 0
  %6 = getelementptr inbounds nuw %"struct.std::_Vector_base<ncnn::Mat, std::allocator<ncnn::Mat>>::_Vector_impl_data", ptr %5, i32 0, i32 1
  call void @_ZN9__gnu_cxx17__normal_iteratorIPN4ncnn3MatESt6vectorIS2_SaIS2_EEEC2ERKS3_(ptr noundef nonnull align 8 dereferenceable(8) %2, ptr noundef nonnull align 8 dereferenceable(8) %6) #3
  %7 = getelementptr inbounds nuw %"class.__gnu_cxx::__normal_iterator", ptr %2, i32 0, i32 0
  %8 = load ptr, ptr %7, align 8
  ret ptr %8
}

; Function Attrs: mustprogress uwtable
define linkonce_odr dso_local void @_ZNSt16allocator_traitsISaIN4ncnn3MatEEE9constructIS1_JRKS1_EEEvRS2_PT_DpOT0_(ptr noundef nonnull align 1 dereferenceable(1) %0, ptr noundef %1, ptr noundef nonnull align 8 dereferenceable(72) %2) #4 comdat align 2 {
  %4 = alloca ptr, align 8
  %5 = alloca ptr, align 8
  %6 = alloca ptr, align 8
  store ptr %0, ptr %4, align 8, !tbaa !79
  store ptr %1, ptr %5, align 8, !tbaa !52
  store ptr %2, ptr %6, align 8, !tbaa !52
  %7 = load ptr, ptr %4, align 8, !tbaa !79
  %8 = load ptr, ptr %5, align 8, !tbaa !52
  %9 = load ptr, ptr %6, align 8, !tbaa !52
  call void @_ZNSt15__new_allocatorIN4ncnn3MatEE9constructIS1_JRKS1_EEEvPT_DpOT0_(ptr noundef nonnull align 1 dereferenceable(1) %7, ptr noundef %8, ptr noundef nonnull align 8 dereferenceable(72) %9)
  ret void
}

; Function Attrs: mustprogress nounwind uwtable
define linkonce_odr dso_local void @_ZNSt12_Vector_baseIN4ncnn3MatESaIS1_EEC2Ev(ptr noundef nonnull align 8 dereferenceable(24) %0) unnamed_addr #8 comdat align 2 {
  %2 = alloca ptr, align 8
  store ptr %0, ptr %2, align 8, !tbaa !75
  %3 = load ptr, ptr %2, align 8
  %4 = getelementptr inbounds nuw %"struct.std::_Vector_base.1", ptr %3, i32 0, i32 0
  call void @_ZNSt12_Vector_baseIN4ncnn3MatESaIS1_EE12_Vector_implC2Ev(ptr noundef nonnull align 8 dereferenceable(24) %4) #3
  ret void
}

; Function Attrs: mustprogress uwtable
define linkonce_odr dso_local void @_ZNSt6vectorIN4ncnn3MatESaIS1_EE9push_backERKS1_(ptr noundef nonnull align 8 dereferenceable(24) %0, ptr noundef nonnull align 8 dereferenceable(72) %1) #4 comdat align 2 {
  %3 = alloca ptr, align 8
  %4 = alloca ptr, align 8
  %5 = alloca %"class.__gnu_cxx::__normal_iterator", align 8
  store ptr %0, ptr %3, align 8, !tbaa !10
  store ptr %1, ptr %4, align 8, !tbaa !52
  %6 = load ptr, ptr %3, align 8
  %7 = getelementptr inbounds nuw %"struct.std::_Vector_base.1", ptr %6, i32 0, i32 0
  %8 = getelementptr inbounds nuw %"struct.std::_Vector_base<ncnn::Mat, std::allocator<ncnn::Mat>>::_Vector_impl_data", ptr %7, i32 0, i32 1
  %9 = load ptr, ptr %8, align 8, !tbaa !48
  %10 = getelementptr inbounds nuw %"struct.std::_Vector_base.1", ptr %6, i32 0, i32 0
  %11 = getelementptr inbounds nuw %"struct.std::_Vector_base<ncnn::Mat, std::allocator<ncnn::Mat>>::_Vector_impl_data", ptr %10, i32 0, i32 2
  %12 = load ptr, ptr %11, align 8, !tbaa !74
  %13 = icmp ne ptr %9, %12
  br i1 %13, label %14, label %24

14:                                               ; preds = %2
  %15 = getelementptr inbounds nuw %"struct.std::_Vector_base.1", ptr %6, i32 0, i32 0
  %16 = getelementptr inbounds nuw %"struct.std::_Vector_base.1", ptr %6, i32 0, i32 0
  %17 = getelementptr inbounds nuw %"struct.std::_Vector_base<ncnn::Mat, std::allocator<ncnn::Mat>>::_Vector_impl_data", ptr %16, i32 0, i32 1
  %18 = load ptr, ptr %17, align 8, !tbaa !48
  %19 = load ptr, ptr %4, align 8, !tbaa !52
  call void @_ZNSt16allocator_traitsISaIN4ncnn3MatEEE9constructIS1_JRKS1_EEEvRS2_PT_DpOT0_(ptr noundef nonnull align 1 dereferenceable(1) %15, ptr noundef %18, ptr noundef nonnull align 8 dereferenceable(72) %19)
  %20 = getelementptr inbounds nuw %"struct.std::_Vector_base.1", ptr %6, i32 0, i32 0
  %21 = getelementptr inbounds nuw %"struct.std::_Vector_base<ncnn::Mat, std::allocator<ncnn::Mat>>::_Vector_impl_data", ptr %20, i32 0, i32 1
  %22 = load ptr, ptr %21, align 8, !tbaa !48
  %23 = getelementptr inbounds nuw %"class.ncnn::Mat", ptr %22, i32 1
  store ptr %23, ptr %21, align 8, !tbaa !48
  br label %30

24:                                               ; preds = %2
  %25 = call ptr @_ZNSt6vectorIN4ncnn3MatESaIS1_EE3endEv(ptr noundef nonnull align 8 dereferenceable(24) %6) #3
  %26 = getelementptr inbounds nuw %"class.__gnu_cxx::__normal_iterator", ptr %5, i32 0, i32 0
  store ptr %25, ptr %26, align 8
  %27 = load ptr, ptr %4, align 8, !tbaa !52
  %28 = getelementptr inbounds nuw %"class.__gnu_cxx::__normal_iterator", ptr %5, i32 0, i32 0
  %29 = load ptr, ptr %28, align 8
  call void @_ZNSt6vectorIN4ncnn3MatESaIS1_EE17_M_realloc_insertIJRKS1_EEEvN9__gnu_cxx17__normal_iteratorIPS1_S3_EEDpOT_(ptr noundef nonnull align 8 dereferenceable(24) %6, ptr %29, ptr noundef nonnull align 8 dereferenceable(72) %27)
  br label %30

30:                                               ; preds = %24, %14
  ret void
}

; Function Attrs: mustprogress nounwind uwtable
define linkonce_odr dso_local void @_ZNSt6vectorIN4ncnn3MatESaIS1_EEC2Ev(ptr noundef nonnull align 8 dereferenceable(24) %0) unnamed_addr #8 comdat align 2 {
  %2 = alloca ptr, align 8
  store ptr %0, ptr %2, align 8, !tbaa !10
  %3 = load ptr, ptr %2, align 8
  call void @_ZNSt12_Vector_baseIN4ncnn3MatESaIS1_EEC2Ev(ptr noundef nonnull align 8 dereferenceable(24) %3) #3
  ret void
}

; Function Attrs: mustprogress uwtable
define dso_local void @_Z9benchmarkPKcRKN4ncnn3MatERKNS1_6OptionEb(ptr noundef %0, ptr noundef nonnull align 8 dereferenceable(72) %1, ptr noundef nonnull align 8 dereferenceable(64) %2, i1 noundef zeroext %3) #4 personality ptr @__gxx_personality_v0 {
  %5 = alloca ptr, align 8
  %6 = alloca ptr, align 8
  %7 = alloca ptr, align 8
  %8 = alloca i8, align 1
  %9 = alloca %"class.std::vector.0", align 8
  %10 = alloca ptr, align 8
  %11 = alloca i32, align 4
  store ptr %0, ptr %5, align 8, !tbaa !5
  store ptr %1, ptr %6, align 8, !tbaa !52
  store ptr %2, ptr %7, align 8, !tbaa !12
  %12 = zext i1 %3 to i8
  store i8 %12, ptr %8, align 1, !tbaa !14
  call void @llvm.lifetime.start.p0(i64 24, ptr %9) #3
  call void @_ZNSt6vectorIN4ncnn3MatESaIS1_EEC2Ev(ptr noundef nonnull align 8 dereferenceable(24) %9) #3
  %13 = load ptr, ptr %6, align 8, !tbaa !52
  invoke void @_ZNSt6vectorIN4ncnn3MatESaIS1_EE9push_backERKS1_(ptr noundef nonnull align 8 dereferenceable(24) %9, ptr noundef nonnull align 8 dereferenceable(72) %13)
          to label %14 unwind label %20

14:                                               ; preds = %4
  %15 = load ptr, ptr %5, align 8, !tbaa !5
  %16 = load ptr, ptr %7, align 8, !tbaa !12
  %17 = load i8, ptr %8, align 1, !tbaa !14, !range !21, !noundef !22
  %18 = trunc i8 %17 to i1
  invoke void @_Z9benchmarkPKcRKSt6vectorIN4ncnn3MatESaIS3_EERKNS2_6OptionEb(ptr noundef %15, ptr noundef nonnull align 8 dereferenceable(24) %9, ptr noundef nonnull align 8 dereferenceable(64) %16, i1 noundef zeroext %18)
          to label %19 unwind label %20

19:                                               ; preds = %14
  call void @_ZNSt6vectorIN4ncnn3MatESaIS1_EED2Ev(ptr noundef nonnull align 8 dereferenceable(24) %9) #3
  call void @llvm.lifetime.end.p0(i64 24, ptr %9) #3
  ret void

20:                                               ; preds = %14, %4
  %21 = landingpad { ptr, i32 }
          cleanup
  %22 = extractvalue { ptr, i32 } %21, 0
  store ptr %22, ptr %10, align 8
  %23 = extractvalue { ptr, i32 } %21, 1
  store i32 %23, ptr %11, align 4
  call void @_ZNSt6vectorIN4ncnn3MatESaIS1_EED2Ev(ptr noundef nonnull align 8 dereferenceable(24) %9) #3
  call void @llvm.lifetime.end.p0(i64 24, ptr %9) #3
  br label %24

24:                                               ; preds = %20
  %25 = load ptr, ptr %10, align 8
  %26 = load i32, ptr %11, align 4
  %27 = insertvalue { ptr, i32 } poison, ptr %25, 0
  %28 = insertvalue { ptr, i32 } %27, i32 %26, 1
  resume { ptr, i32 } %28
}