; Function Attrs: mustprogress uwtable
define dso_local void @_Z9benchmarkPKcRKN4ncnn3MatERKNS1_6OptionEb(ptr noundef %0, ptr noundef nonnull align 8 dereferenceable(72) %1, ptr noundef nonnull readonly align 8 captures(none) dereferenceable(64) %2, i1 noundef zeroext %3) local_unnamed_addr #3 personality ptr @__gxx_personality_v0 {
  %5 = alloca %"class.std::vector.0", align 8
  call void @llvm.lifetime.start.p0(i64 24, ptr nonnull %5) #24
  call void @llvm.memset.p0.i64(ptr noundef nonnull align 8 dereferenceable(24) %5, i8 0, i64 24, i1 false)
  %6 = getelementptr inbounds nuw i8, ptr %5, i64 8
  %7 = getelementptr inbounds nuw i8, ptr %5, i64 16
  invoke void @_ZNSt6vectorIN4ncnn3MatESaIS1_EE17_M_realloc_insertIJRKS1_EEEvN9__gnu_cxx17__normal_iteratorIPS1_S3_EEDpOT_(ptr noundef nonnull align 8 dereferenceable(24) %5, ptr null, ptr noundef nonnull align 8 dereferenceable(72) %1)
          to label %_ZNSt6vectorIN4ncnn3MatESaIS1_EE9push_backERKS1_.exit unwind label %38

_ZNSt6vectorIN4ncnn3MatESaIS1_EE9push_backERKS1_.exit: ; preds = %4
  invoke void @_Z9benchmarkPKcRKSt6vectorIN4ncnn3MatESaIS3_EERKNS2_6OptionEb(ptr noundef %0, ptr noundef nonnull align 8 dereferenceable(24) %5, ptr noundef nonnull align 8 dereferenceable(64) %2, i1 noundef zeroext %3)
          to label %8 unwind label %38

8:                                                ; preds = %_ZNSt6vectorIN4ncnn3MatESaIS1_EE9push_backERKS1_.exit
  %9 = load ptr, ptr %5, align 8, !tbaa !27
  %10 = load ptr, ptr %6, align 8, !tbaa !24
  %.not4.i.i.i.i = icmp eq ptr %9, %10
  br i1 %.not4.i.i.i.i, label %_ZSt8_DestroyIPN4ncnn3MatES1_EvT_S3_RSaIT0_E.exit.i, label %.lr.ph.i.i.i.i

.lr.ph.i.i.i.i:                                   ; preds = %8, %_ZSt8_DestroyIN4ncnn3MatEEvPT_.exit.i.i.i.i
  %.05.i.i.i.i = phi ptr [ %31, %_ZSt8_DestroyIN4ncnn3MatEEvPT_.exit.i.i.i.i ], [ %9, %8 ]
  %11 = getelementptr inbounds nuw i8, ptr %.05.i.i.i.i, i64 8
  %12 = load ptr, ptr %11, align 8, !tbaa !34
  %.not.i.i.i.i.i.i = icmp eq ptr %12, null
  br i1 %.not.i.i.i.i.i.i, label %_ZSt8_DestroyIN4ncnn3MatEEvPT_.exit.i.i.i.i, label %13

13:                                               ; preds = %.lr.ph.i.i.i.i
  %14 = atomicrmw add ptr %12, i32 -1 acq_rel, align 4
  %15 = icmp eq i32 %14, 1
  br i1 %15, label %16, label %_ZSt8_DestroyIN4ncnn3MatEEvPT_.exit.i.i.i.i

16:                                               ; preds = %13
  %17 = getelementptr inbounds nuw i8, ptr %.05.i.i.i.i, i64 32
  %18 = load ptr, ptr %17, align 8, !tbaa !35
  %.not3.i.i.i.i.i.i = icmp eq ptr %18, null
  %19 = load ptr, ptr %.05.i.i.i.i, align 8, !tbaa !30
  br i1 %.not3.i.i.i.i.i.i, label %24, label %20

20:                                               ; preds = %16
  %21 = load ptr, ptr %18, align 8, !tbaa !15
  %22 = getelementptr inbounds nuw i8, ptr %21, i64 24
  %23 = load ptr, ptr %22, align 8
  invoke void %23(ptr noundef nonnull align 8 dereferenceable(8) %18, ptr noundef %19)
          to label %_ZSt8_DestroyIN4ncnn3MatEEvPT_.exit.i.i.i.i unwind label %26

24:                                               ; preds = %16
  %.not.i1.i.i.i.i.i = icmp eq ptr %19, null
  br i1 %.not.i1.i.i.i.i.i, label %_ZSt8_DestroyIN4ncnn3MatEEvPT_.exit.i.i.i.i, label %25

25:                                               ; preds = %24
  call void @free(ptr noundef nonnull %19) #24
  br label %_ZSt8_DestroyIN4ncnn3MatEEvPT_.exit.i.i.i.i

26:                                               ; preds = %20
  %27 = landingpad { ptr, i32 }
          catch ptr null
  %28 = extractvalue { ptr, i32 } %27, 0
  call void @__clang_call_terminate(ptr %28) #26
  unreachable

_ZSt8_DestroyIN4ncnn3MatEEvPT_.exit.i.i.i.i:      ; preds = %25, %24, %20, %13, %.lr.ph.i.i.i.i
  %29 = getelementptr inbounds nuw i8, ptr %.05.i.i.i.i, i64 40
  %30 = getelementptr inbounds nuw i8, ptr %.05.i.i.i.i, i64 64
  store i64 0, ptr %30, align 8, !tbaa !37
  call void @llvm.memset.p0.i64(ptr noundef nonnull align 8 dereferenceable(28) %.05.i.i.i.i, i8 0, i64 28, i1 false)
  call void @llvm.memset.p0.i64(ptr noundef nonnull align 8 dereferenceable(20) %29, i8 0, i64 20, i1 false)
  %31 = getelementptr inbounds nuw i8, ptr %.05.i.i.i.i, i64 72
  %.not.i.i.i.i5 = icmp eq ptr %31, %10
  br i1 %.not.i.i.i.i5, label %_ZSt8_DestroyIPN4ncnn3MatES1_EvT_S3_RSaIT0_E.exitthread-pre-split.i, label %.lr.ph.i.i.i.i, !llvm.loop !57

_ZSt8_DestroyIPN4ncnn3MatES1_EvT_S3_RSaIT0_E.exitthread-pre-split.i: ; preds = %_ZSt8_DestroyIN4ncnn3MatEEvPT_.exit.i.i.i.i
  %.pr.i = load ptr, ptr %5, align 8, !tbaa !27
  br label %_ZSt8_DestroyIPN4ncnn3MatES1_EvT_S3_RSaIT0_E.exit.i

_ZSt8_DestroyIPN4ncnn3MatES1_EvT_S3_RSaIT0_E.exit.i: ; preds = %_ZSt8_DestroyIPN4ncnn3MatES1_EvT_S3_RSaIT0_E.exitthread-pre-split.i, %8
  %32 = phi ptr [ %.pr.i, %_ZSt8_DestroyIPN4ncnn3MatES1_EvT_S3_RSaIT0_E.exitthread-pre-split.i ], [ %9, %8 ]
  %.not.i.i.i = icmp eq ptr %32, null
  br i1 %.not.i.i.i, label %_ZNSt6vectorIN4ncnn3MatESaIS1_EED2Ev.exit, label %33

33:                                               ; preds = %_ZSt8_DestroyIPN4ncnn3MatES1_EvT_S3_RSaIT0_E.exit.i
  %34 = load ptr, ptr %7, align 8, !tbaa !58
  %35 = ptrtoint ptr %34 to i64
  %36 = ptrtoint ptr %32 to i64
  %37 = sub i64 %35, %36
  call void @_ZdlPvm(ptr noundef nonnull %32, i64 noundef %37) #27
  br label %_ZNSt6vectorIN4ncnn3MatESaIS1_EED2Ev.exit

_ZNSt6vectorIN4ncnn3MatESaIS1_EED2Ev.exit:        ; preds = %_ZSt8_DestroyIPN4ncnn3MatES1_EvT_S3_RSaIT0_E.exit.i, %33
  call void @llvm.lifetime.end.p0(i64 24, ptr nonnull %5) #24
  ret void

38:                                               ; preds = %4, %_ZNSt6vectorIN4ncnn3MatESaIS1_EE9push_backERKS1_.exit
  %39 = landingpad { ptr, i32 }
          cleanup
  call void @_ZNSt6vectorIN4ncnn3MatESaIS1_EED2Ev(ptr noundef nonnull align 8 dereferenceable(24) %5) #24
  call void @llvm.lifetime.end.p0(i64 24, ptr nonnull %5) #24
  resume { ptr, i32 } %39
}